; Function Attrs: nounwind uwtable
define hidden void @_glfwCenterCursorInContentArea(ptr noundef %0) local_unnamed_addr #0 {
  %2 = alloca i32, align 4
  %3 = alloca i32, align 4
  call void @llvm.lifetime.start.p0(i64 4, ptr nonnull %2) #12
  call void @llvm.lifetime.start.p0(i64 4, ptr nonnull %3) #12
  %4 = load ptr, ptr getelementptr inbounds nuw (i8, ptr @_glfw, i64 320), align 8, !tbaa !167
  call void %4(ptr noundef %0, ptr noundef nonnull %2, ptr noundef nonnull %3) #12
  %5 = load ptr, ptr getelementptr inbounds nuw (i8, ptr @_glfw, i64 72), align 8, !tbaa !168
  %6 = load i32, ptr %2, align 4, !tbaa !169
  %7 = sitofp i32 %6 to double
  %8 = fmul double %7, 5.000000e-01
  %9 = load i32, ptr %3, align 4, !tbaa !169
  %10 = sitofp i32 %9 to double
  %11 = fmul double %10, 5.000000e-01
  call void %5(ptr noundef %0, double noundef %8, double noundef %11) #12
  call void @llvm.lifetime.end.p0(i64 4, ptr nonnull %3) #12
  call void @llvm.lifetime.end.p0(i64 4, ptr nonnull %2) #12
  ret void
}